target datalayout = "e-m:e-p270:32:32-p271:32:32-p272:64:64-i64:64-i128:128-f80:128-n8:16:32:64-S128"
target triple = "x86_64-pc-linux-gnu"

@proto_register_acn.magic_ett = internal global [1 x ptr] [ptr @ett_magic], align 8
@.str.439 = private unnamed_addr constant [34 x i8] c"Architecture for Control Networks\00", align 1
@.str.440 = private unnamed_addr constant [4 x i8] c"ACN\00", align 1
@.str.441 = private unnamed_addr constant [4 x i8] c"acn\00", align 1
@proto_acn = internal global i32 0, align 4
@.str.442 = private unnamed_addr constant [13 x i8] c"Magic Bullet\00", align 1
@.str.443 = private unnamed_addr constant [6 x i8] c"MAGIC\00", align 1
@.str.444 = private unnamed_addr constant [6 x i8] c"magic\00", align 1
@proto_magic = internal global i32 0, align 4
@.str.445 = private unnamed_addr constant [7 x i8] c"RDMnet\00", align 1
@.str.446 = private unnamed_addr constant [7 x i8] c"rdmnet\00", align 1
@proto_rdmnet = internal global i32 0, align 4
@.str.447 = private unnamed_addr constant [14 x i8] c"heuristic_acn\00", align 1
@.str.448 = private unnamed_addr constant [11 x i8] c"dmx_enable\00", align 1
@.str.449 = private unnamed_addr constant [14 x i8] c"Streaming DMX\00", align 1
@.str.450 = private unnamed_addr constant [58 x i8] c"Enable Streaming DMX extension dissector (ANSI BSR E1.31)\00", align 1
@global_acn_dmx_enable = internal global i8 0, align 1
@.str.451 = private unnamed_addr constant [17 x i8] c"dmx_display_view\00", align 1
@.str.452 = private unnamed_addr constant [20 x i8] c"DMX, display format\00", align 1
@.str.453 = private unnamed_addr constant [15 x i8] c"Display format\00", align 1
@global_acn_dmx_display_view = internal global i32 0, align 4
@.str.454 = private unnamed_addr constant [18 x i8] c"dmx_display_zeros\00", align 1
@.str.455 = private unnamed_addr constant [19 x i8] c"DMX, display zeros\00", align 1
@.str.456 = private unnamed_addr constant [30 x i8] c"Display zeros instead of dots\00", align 1
@global_acn_dmx_display_zeros = internal global i8 0, align 1
@.str.457 = private unnamed_addr constant [26 x i8] c"dmx_display_leading_zeros\00", align 1
@.str.458 = private unnamed_addr constant [27 x i8] c"DMX, display leading zeros\00", align 1
@.str.459 = private unnamed_addr constant [32 x i8] c"Display leading zeros on levels\00", align 1
@global_acn_dmx_display_leading_zeros = internal global i8 0, align 1
@.str.460 = private unnamed_addr constant [24 x i8] c"dmx_display_line_format\00", align 1
@.str.461 = private unnamed_addr constant [25 x i8] c"DMX, display line format\00", align 1
@.str.462 = private unnamed_addr constant [20 x i8] c"Display line format\00", align 1
@global_acn_dmx_display_line_format = internal global i32 0, align 4
@acn_handle = internal global ptr null, align 8

; Function Attrs: null_pointer_is_valid sspstrong uwtable
define hidden void @proto_register_acn() #0 {
  %1 = alloca ptr, align 8
  %2 = alloca ptr, align 8
  call void @llvm.lifetime.start.p0(i64 8, ptr %1) #7
  call void @llvm.lifetime.start.p0(i64 8, ptr %2) #7
  %3 = call i32 @proto_register_protocol(ptr noundef @.str.439, ptr noundef @.str.440, ptr noundef @.str.441)
  store i32 %3, ptr @proto_acn, align 4
  %4 = call i32 @proto_register_protocol(ptr noundef @.str.442, ptr noundef @.str.443, ptr noundef @.str.444)
  store i32 %4, ptr @proto_magic, align 4
  %5 = call i32 @proto_register_protocol(ptr noundef @.str.445, ptr noundef @.str.445, ptr noundef @.str.446)
  store i32 %5, ptr @proto_rdmnet, align 4
  %6 = load i32, ptr @proto_acn, align 4
  call void @proto_register_field_array(i32 noundef %6, ptr noundef @proto_register_acn.hf, i32 noundef 100)
  call void @proto_register_subtree_array(ptr noundef @proto_register_acn.ett, i32 noundef 17)
  %7 = load i32, ptr @proto_acn, align 4
  %8 = call ptr @prefs_register_protocol(i32 noundef %7, ptr noundef null)
  store ptr %8, ptr %1, align 8
  %9 = load ptr, ptr %1, align 8
  call void @prefs_register_obsolete_preference(ptr noundef %9, ptr noundef @.str.447)
  %10 = load ptr, ptr %1, align 8
  call void @prefs_register_bool_preference(ptr noundef %10, ptr noundef @.str.448, ptr noundef @.str.449, ptr noundef @.str.450, ptr noundef @global_acn_dmx_enable)
  %11 = load ptr, ptr %1, align 8
  call void @prefs_register_enum_preference(ptr noundef %11, ptr noundef @.str.451, ptr noundef @.str.452, ptr noundef @.str.453, ptr noundef @global_acn_dmx_display_view, ptr noundef @dmx_display_view, i1 noundef zeroext true)
  %12 = load ptr, ptr %1, align 8
  call void @prefs_register_bool_preference(ptr noundef %12, ptr noundef @.str.454, ptr noundef @.str.455, ptr noundef @.str.456, ptr noundef @global_acn_dmx_display_zeros)
  %13 = load ptr, ptr %1, align 8
  call void @prefs_register_bool_preference(ptr noundef %13, ptr noundef @.str.457, ptr noundef @.str.458, ptr noundef @.str.459, ptr noundef @global_acn_dmx_display_leading_zeros)
  %14 = load ptr, ptr %1, align 8
  call void @prefs_register_enum_preference(ptr noundef %14, ptr noundef @.str.460, ptr noundef @.str.461, ptr noundef @.str.462, ptr noundef @global_acn_dmx_display_line_format, ptr noundef @dmx_display_line_format, i1 noundef zeroext true)
  %15 = load i32, ptr @proto_magic, align 4
  call void @proto_register_field_array(i32 noundef %15, ptr noundef @proto_register_acn.magic_hf, i32 noundef 29)
  call void @proto_register_subtree_array(ptr noundef @proto_register_acn.magic_ett, i32 noundef 1)
  %16 = load i32, ptr @proto_magic, align 4
  %17 = call ptr @expert_register_protocol(i32 noundef %16)
  store ptr %17, ptr %2, align 8
  %18 = load ptr, ptr %2, align 8
  call void @expert_register_field_array(ptr noundef %18, ptr noundef @proto_register_acn.ei, i32 noundef 2)
  %19 = load i32, ptr @proto_rdmnet, align 4
  call void @proto_register_field_array(i32 noundef %19, ptr noundef @proto_register_acn.rdmnet_hf, i32 noundef 93)
  call void @proto_register_subtree_array(ptr noundef @proto_register_acn.rdmnet_ett, i32 noundef 20)
  %20 = load i32, ptr @proto_acn, align 4
  %21 = call ptr @register_dissector(ptr noundef @.str.441, ptr noundef @dissect_acn, i32 noundef %20)
  store ptr %21, ptr @acn_handle, align 8
  call void @llvm.lifetime.end.p0(i64 8, ptr %2) #7
  call void @llvm.lifetime.end.p0(i64 8, ptr %1) #7
  ret void
}