; Function Attrs: null_pointer_is_valid sspstrong uwtable
define hidden void @proto_register_acn() local_unnamed_addr #0 {
  %1 = tail call i32 @proto_register_protocol(ptr noundef nonnull @.str.439, ptr noundef nonnull @.str.440, ptr noundef nonnull @.str.441)
  store i32 %1, ptr @proto_acn, align 4
  %2 = tail call i32 @proto_register_protocol(ptr noundef nonnull @.str.442, ptr noundef nonnull @.str.443, ptr noundef nonnull @.str.444)
  store i32 %2, ptr @proto_magic, align 4
  %3 = tail call i32 @proto_register_protocol(ptr noundef nonnull @.str.445, ptr noundef nonnull @.str.445, ptr noundef nonnull @.str.446)
  store i32 %3, ptr @proto_rdmnet, align 4
  %4 = load i32, ptr @proto_acn, align 4
  tail call void @proto_register_field_array(i32 noundef %4, ptr noundef nonnull @proto_register_acn.hf, i32 noundef 100)
  tail call void @proto_register_subtree_array(ptr noundef nonnull @proto_register_acn.ett, i32 noundef 17)
  %5 = load i32, ptr @proto_acn, align 4
  %6 = tail call ptr @prefs_register_protocol(i32 noundef %5, ptr noundef null)
  tail call void @prefs_register_obsolete_preference(ptr noundef %6, ptr noundef nonnull @.str.447)
  tail call void @prefs_register_bool_preference(ptr noundef %6, ptr noundef nonnull @.str.448, ptr noundef nonnull @.str.449, ptr noundef nonnull @.str.450, ptr noundef nonnull @global_acn_dmx_enable)
  tail call void @prefs_register_enum_preference(ptr noundef %6, ptr noundef nonnull @.str.451, ptr noundef nonnull @.str.452, ptr noundef nonnull @.str.453, ptr noundef nonnull @global_acn_dmx_display_view, ptr noundef nonnull @dmx_display_view, i1 noundef zeroext true)
  tail call void @prefs_register_bool_preference(ptr noundef %6, ptr noundef nonnull @.str.454, ptr noundef nonnull @.str.455, ptr noundef nonnull @.str.456, ptr noundef nonnull @global_acn_dmx_display_zeros)
  tail call void @prefs_register_bool_preference(ptr noundef %6, ptr noundef nonnull @.str.457, ptr noundef nonnull @.str.458, ptr noundef nonnull @.str.459, ptr noundef nonnull @global_acn_dmx_display_leading_zeros)
  tail call void @prefs_register_enum_preference(ptr noundef %6, ptr noundef nonnull @.str.460, ptr noundef nonnull @.str.461, ptr noundef nonnull @.str.462, ptr noundef nonnull @global_acn_dmx_display_line_format, ptr noundef nonnull @dmx_display_line_format, i1 noundef zeroext true)
  %7 = load i32, ptr @proto_magic, align 4
  tail call void @proto_register_field_array(i32 noundef %7, ptr noundef nonnull @proto_register_acn.magic_hf, i32 noundef 29)
  tail call void @proto_register_subtree_array(ptr noundef nonnull @proto_register_acn.magic_ett, i32 noundef 1)
  %8 = load i32, ptr @proto_magic, align 4
  %9 = tail call ptr @expert_register_protocol(i32 noundef %8)
  tail call void @expert_register_field_array(ptr noundef %9, ptr noundef nonnull @proto_register_acn.ei, i32 noundef 2)
  %10 = load i32, ptr @proto_rdmnet, align 4
  tail call void @proto_register_field_array(i32 noundef %10, ptr noundef nonnull @proto_register_acn.rdmnet_hf, i32 noundef 93)
  tail call void @proto_register_subtree_array(ptr noundef nonnull @proto_register_acn.rdmnet_ett, i32 noundef 20)
  %11 = load i32, ptr @proto_acn, align 4
  %12 = tail call ptr @register_dissector(ptr noundef nonnull @.str.441, ptr noundef nonnull @dissect_acn, i32 noundef %11)
  store ptr %12, ptr @acn_handle, align 8
  ret void
}